target datalayout = "e-m:e-p270:32:32-p271:32:32-p272:64:64-i64:64-i128:128-f80:128-n8:16:32:64-S128"
target triple = "x86_64-pc-linux-gnu"

%class.MachNode = type { %class.Node.base, i8, i16, ptr }
%class.Node.base = type <{ ptr, ptr, ptr, i32, i32, i32, i32, i32, i32, i32 }>
%class.ReallocMark = type { i8 }
%class.MachReturnNode = type { %class.MachNode, ptr, %class.ReallocMark, ptr }
%class.MachSafePointNode.base = type <{ %class.MachReturnNode, ptr, ptr, i32, i8 }>
%class.MachCallNode.base = type <{ %class.MachSafePointNode.base, [3 x i8], ptr, ptr, float, i8 }>
%class.MachCallStaticJavaNode = type { %class.MachCallJavaNode.base, ptr }
%class.MachCallJavaNode.base = type <{ %class.MachCallNode.base, [3 x i8], ptr, i8, i8, i8, i8 }>

@.str.4 = private unnamed_addr constant [14 x i8] c"uncommon_trap\00", align 1

; Function Attrs: mustprogress nounwind uwtable
define hidden noundef i32 @_ZNK22MachCallStaticJavaNode21uncommon_trap_requestEv(ptr noundef nonnull align 8 dereferenceable(160) %0) #1 align 2 {
  %2 = alloca i32, align 4
  %3 = alloca ptr, align 8
  store ptr %0, ptr %3, align 8
  %4 = load ptr, ptr %3, align 8
  %5 = getelementptr inbounds %class.MachCallStaticJavaNode, ptr %4, i32 0, i32 1
  %6 = load ptr, ptr %5, align 8
  %7 = icmp ne ptr %6, null
  br i1 %7, label %8, label %15

8:                                                ; preds = %1
  %9 = getelementptr inbounds %class.MachCallStaticJavaNode, ptr %4, i32 0, i32 1
  %10 = load ptr, ptr %9, align 8
  %11 = call i32 @strcmp(ptr noundef %10, ptr noundef @.str.4) #7
  %12 = icmp ne i32 %11, 0
  br i1 %12, label %15, label %13

13:                                               ; preds = %8
  %14 = call noundef i32 @_ZN18CallStaticJavaNode29extract_uncommon_trap_requestEPK4Node(ptr noundef %4)
  store i32 %14, ptr %2, align 4
  br label %16

15:                                               ; preds = %8, %1
  store i32 0, ptr %2, align 4
  br label %16

16:                                               ; preds = %15, %13
  %17 = load i32, ptr %2, align 4
  ret i32 %17
}