; Function Attrs: mustprogress nounwind uwtable
define hidden noundef i32 @_ZNK22MachCallStaticJavaNode21uncommon_trap_requestEv(ptr noundef nonnull align 8 dereferenceable(160) %0) local_unnamed_addr #6 align 2 {
  %2 = getelementptr inbounds i8, ptr %0, i64 152
  %3 = load ptr, ptr %2, align 8
  %.not = icmp eq ptr %3, null
  br i1 %.not, label %8, label %4

4:                                                ; preds = %1
  %5 = tail call i32 @strcmp(ptr noundef nonnull dereferenceable(1) %3, ptr noundef nonnull dereferenceable(14) @.str.4) #14
  %.not2 = icmp eq i32 %5, 0
  br i1 %.not2, label %6, label %8

6:                                                ; preds = %4
  %7 = tail call noundef i32 @_ZN18CallStaticJavaNode29extract_uncommon_trap_requestEPK4Node(ptr noundef nonnull %0) #13
  br label %8

8:                                                ; preds = %1, %4, %6
  %.0 = phi i32 [ %7, %6 ], [ 0, %4 ], [ 0, %1 ]
  ret i32 %.0
}